target datalayout = "e-m:e-p270:32:32-p271:32:32-p272:64:64-i64:64-i128:128-f80:128-n8:16:32:64-S128"
target triple = "x86_64-unknown-linux-gnu"

%class.btMatrix3x3 = type { [3 x %class.btVector3] }
%class.btVector3 = type { [4 x float] }
%class.btDeformableContactConstraint = type { ptr, i8, ptr, %class.btVector3 }
%class.btReducedDeformableRigidContactConstraint = type <{ %class.btDeformableRigidContactConstraint, i8, i8, [2 x i8], i32, i32, [4 x i8], ptr, ptr, float, float, float, float, float, float, float, float, float, float, float, float, float, float, float, float, float, %class.btVector3, %class.btVector3, %class.btVector3, %class.btVector3, %class.btVector3, %class.btVector3, %class.btMatrix3x3, %class.btVector3, %class.btVector3, %class.btVector3, %class.btVector3, %class.btVector3, %class.btVector3, [4 x i8] }>
%class.btDeformableRigidContactConstraint = type { %class.btDeformableContactConstraint, %class.btVector3, %class.btVector3, float, float, i8, ptr }

; Function Attrs: mustprogress nounwind uwtable
define linkonce_odr dso_local void @_ZN9btVector3C2ERKfS1_S1_(ptr noundef nonnull align 4 dereferenceable(16) %this, ptr noundef nonnull align 4 dereferenceable(4) %_x, ptr noundef nonnull align 4 dereferenceable(4) %_y, ptr noundef nonnull align 4 dereferenceable(4) %_z) unnamed_addr #1 comdat align 2 {
entry:
  %this.addr = alloca ptr, align 8
  %_x.addr = alloca ptr, align 8
  %_y.addr = alloca ptr, align 8
  %_z.addr = alloca ptr, align 8
  store ptr %this, ptr %this.addr, align 8
  store ptr %_x, ptr %_x.addr, align 8
  store ptr %_y, ptr %_y.addr, align 8
  store ptr %_z, ptr %_z.addr, align 8
  %this1 = load ptr, ptr %this.addr, align 8
  %0 = load ptr, ptr %_x.addr, align 8
  %1 = load float, ptr %0, align 4
  %m_floats = getelementptr inbounds %class.btVector3, ptr %this1, i32 0, i32 0
  %arrayidx = getelementptr inbounds [4 x float], ptr %m_floats, i64 0, i64 0
  store float %1, ptr %arrayidx, align 4
  %2 = load ptr, ptr %_y.addr, align 8
  %3 = load float, ptr %2, align 4
  %m_floats2 = getelementptr inbounds %class.btVector3, ptr %this1, i32 0, i32 0
  %arrayidx3 = getelementptr inbounds [4 x float], ptr %m_floats2, i64 0, i64 1
  store float %3, ptr %arrayidx3, align 4
  %4 = load ptr, ptr %_z.addr, align 8
  %5 = load float, ptr %4, align 4
  %m_floats4 = getelementptr inbounds %class.btVector3, ptr %this1, i32 0, i32 0
  %arrayidx5 = getelementptr inbounds [4 x float], ptr %m_floats4, i64 0, i64 2
  store float %5, ptr %arrayidx5, align 4
  %m_floats6 = getelementptr inbounds %class.btVector3, ptr %this1, i32 0, i32 0
  %arrayidx7 = getelementptr inbounds [4 x float], ptr %m_floats6, i64 0, i64 3
  store float 0.000000e+00, ptr %arrayidx7, align 4
  ret void
}

; Function Attrs: mustprogress uwtable
define dso_local { <2 x float>, <2 x float> } @_ZNK41btReducedDeformableRigidContactConstraint5getVaEv(ptr noundef nonnull align 8 dereferenceable(436) %this) unnamed_addr #5 align 2 {
entry:
  %retval = alloca %class.btVector3, align 4
  %this.addr = alloca ptr, align 8
  %ref.tmp = alloca float, align 4
  %ref.tmp2 = alloca float, align 4
  %ref.tmp3 = alloca float, align 4
  %ref.tmp4 = alloca %class.btVector3, align 4
  store ptr %this, ptr %this.addr, align 8
  %this1 = load ptr, ptr %this.addr, align 8
  store float 0.000000e+00, ptr %ref.tmp, align 4
  store float 0.000000e+00, ptr %ref.tmp2, align 4
  store float 0.000000e+00, ptr %ref.tmp3, align 4
  call void @_ZN9btVector3C2ERKfS1_S1_(ptr noundef nonnull align 4 dereferenceable(16) %retval, ptr noundef nonnull align 4 dereferenceable(4) %ref.tmp, ptr noundef nonnull align 4 dereferenceable(4) %ref.tmp2, ptr noundef nonnull align 4 dereferenceable(4) %ref.tmp3)
  %m_collideStatic = getelementptr inbounds %class.btReducedDeformableRigidContactConstraint, ptr %this1, i32 0, i32 1
  %0 = load i8, ptr %m_collideStatic, align 8
  %tobool = trunc i8 %0 to i1
  br i1 %tobool, label %if.end, label %if.then

if.then:                                          ; preds = %entry
  %call = call { <2 x float>, <2 x float> } @_ZNK34btDeformableRigidContactConstraint5getVaEv(ptr noundef nonnull align 8 dereferenceable(96) %this1)
  %coerce.dive = getelementptr inbounds %class.btVector3, ptr %ref.tmp4, i32 0, i32 0
  %1 = getelementptr inbounds { <2 x float>, <2 x float> }, ptr %coerce.dive, i32 0, i32 0
  %2 = extractvalue { <2 x float>, <2 x float> } %call, 0
  store <2 x float> %2, ptr %1, align 4
  %3 = getelementptr inbounds { <2 x float>, <2 x float> }, ptr %coerce.dive, i32 0, i32 1
  %4 = extractvalue { <2 x float>, <2 x float> } %call, 1
  store <2 x float> %4, ptr %3, align 4
  call void @llvm.memcpy.p0.p0.i64(ptr align 4 %retval, ptr align 4 %ref.tmp4, i64 16, i1 false)
  br label %if.end

if.end:                                           ; preds = %if.then, %entry
  %coerce.dive5 = getelementptr inbounds %class.btVector3, ptr %retval, i32 0, i32 0
  %5 = load { <2 x float>, <2 x float> }, ptr %coerce.dive5, align 4
  ret { <2 x float>, <2 x float> } %5
}