; Function Attrs: mustprogress uwtable
define dso_local { <2 x float>, <2 x float> } @_ZNK41btReducedDeformableRigidContactConstraint5getVaEv(ptr noundef nonnull align 8 dereferenceable(436) %this) unnamed_addr #3 align 2 {
entry:
  %m_collideStatic = getelementptr inbounds i8, ptr %this, i64 96
  %0 = load i8, ptr %m_collideStatic, align 8
  %1 = and i8 %0, 1
  %tobool.not = icmp eq i8 %1, 0
  br i1 %tobool.not, label %if.then, label %if.end

if.then:                                          ; preds = %entry
  %call = tail call { <2 x float>, <2 x float> } @_ZNK34btDeformableRigidContactConstraint5getVaEv(ptr noundef nonnull align 8 dereferenceable(96) %this)
  %2 = extractvalue { <2 x float>, <2 x float> } %call, 0
  %3 = extractvalue { <2 x float>, <2 x float> } %call, 1
  br label %if.end

if.end:                                           ; preds = %if.then, %entry
  %retval.sroa.0.0 = phi <2 x float> [ %2, %if.then ], [ zeroinitializer, %entry ]
  %retval.sroa.4.0 = phi <2 x float> [ %3, %if.then ], [ zeroinitializer, %entry ]
  %.fca.0.insert = insertvalue { <2 x float>, <2 x float> } poison, <2 x float> %retval.sroa.0.0, 0
  %.fca.1.insert = insertvalue { <2 x float>, <2 x float> } %.fca.0.insert, <2 x float> %retval.sroa.4.0, 1
  ret { <2 x float>, <2 x float> } %.fca.1.insert
}